; Function Attrs: nounwind uwtable
define ptr @ecpg_get_connection(ptr noundef readonly captures(address_is_null) %0) local_unnamed_addr #0 {
  %2 = icmp eq ptr %0, null
  br i1 %2, label %6, label %3

3:                                                ; preds = %1
  %4 = tail call i32 @strcmp(ptr noundef nonnull dereferenceable(1) %0, ptr noundef nonnull dereferenceable(8) @.str) #9
  %5 = icmp eq i32 %4, 0
  br i1 %5, label %6, label %12

6:                                                ; preds = %3, %1
  %7 = tail call i32 @pthread_once(ptr noundef nonnull @actual_connection_key_once, ptr noundef nonnull @ecpg_actual_connection_init) #8
  %8 = load i32, ptr @actual_connection_key, align 4
  %9 = tail call ptr @pthread_getspecific(i32 noundef %8) #8
  %10 = icmp eq ptr %9, null
  %11 = load ptr, ptr @actual_connection, align 8
  %spec.select = select i1 %10, ptr %11, ptr %9
  br label %28

12:                                               ; preds = %3
  %13 = tail call i32 @pthread_mutex_lock(ptr noundef nonnull @connections_mutex) #8
  %14 = tail call i32 @strcmp(ptr noundef nonnull readonly dereferenceable(1) %0, ptr noundef nonnull dereferenceable(8) @.str) #9
  %15 = icmp eq i32 %14, 0
  br i1 %15, label %16, label %.preheader.i

.preheader.i:                                     ; preds = %12
  %.012.i = load ptr, ptr @all_connections, align 8
  %.not13.i = icmp eq ptr %.012.i, null
  br i1 %.not13.i, label %ecpg_get_connection_nr.exit, label %.lr.ph.i

16:                                               ; preds = %12
  %17 = tail call i32 @pthread_once(ptr noundef nonnull @actual_connection_key_once, ptr noundef nonnull @ecpg_actual_connection_init) #8
  %18 = load i32, ptr @actual_connection_key, align 4
  %19 = tail call ptr @pthread_getspecific(i32 noundef %18) #8
  %20 = icmp eq ptr %19, null
  %21 = load ptr, ptr @actual_connection, align 8
  %spec.select.i = select i1 %20, ptr %21, ptr %19
  br label %ecpg_get_connection_nr.exit

.lr.ph.i:                                         ; preds = %.preheader.i, %25
  %.014.i = phi ptr [ %.0.i, %25 ], [ %.012.i, %.preheader.i ]
  %22 = load ptr, ptr %.014.i, align 8
  %23 = tail call i32 @strcmp(ptr noundef nonnull readonly dereferenceable(1) %0, ptr noundef nonnull dereferenceable(1) %22) #9
  %24 = icmp eq i32 %23, 0
  br i1 %24, label %ecpg_get_connection_nr.exit, label %25

25:                                               ; preds = %.lr.ph.i
  %26 = getelementptr inbounds nuw i8, ptr %.014.i, i64 40
  %.0.i = load ptr, ptr %26, align 8
  %.not.i = icmp eq ptr %.0.i, null
  br i1 %.not.i, label %ecpg_get_connection_nr.exit, label %.lr.ph.i, !llvm.loop !3

ecpg_get_connection_nr.exit:                      ; preds = %.lr.ph.i, %25, %.preheader.i, %16
  %.09.i = phi ptr [ %spec.select.i, %16 ], [ null, %.preheader.i ], [ null, %25 ], [ %.014.i, %.lr.ph.i ]
  %27 = tail call i32 @pthread_mutex_unlock(ptr noundef nonnull @connections_mutex) #8
  br label %28

28:                                               ; preds = %6, %ecpg_get_connection_nr.exit
  %.0 = phi ptr [ %.09.i, %ecpg_get_connection_nr.exit ], [ %spec.select, %6 ]
  ret ptr %.0
}